target datalayout = "e-m:e-p270:32:32-p271:32:32-p272:64:64-i64:64-i128:128-f80:128-n8:16:32:64-S128"
target triple = "x86_64-pc-linux-gnu"

%struct.topoinfo_bblock = type { i8, i16, ptr, ptr, i32 }

@.str.8 = private unnamed_addr constant [20 x i8] c"%s=%s BlockIndex=%u\00", align 1
@.str.9 = private unnamed_addr constant [16 x i8] c"AggregatedBlock\00", align 1
@.str.10 = private unnamed_addr constant [10 x i8] c"BlockName\00", align 1
@.str.11 = private unnamed_addr constant [10 x i8] c" Nodes=%s\00", align 1
@.str.12 = private unnamed_addr constant [14 x i8] c" BlockSize=%u\00", align 1
@.str.13 = private unnamed_addr constant [15 x i8] c"SLURM_TOPO_LEN\00", align 1
@.str.14 = private unnamed_addr constant [6 x i8] c"%.*s\0A\00", align 1
@.str.15 = private unnamed_addr constant [4 x i8] c"%s\0A\00", align 1

; Function Attrs: inlinehint nounwind willreturn memory(read) uwtable
define available_externally i32 @atoi(ptr noundef nonnull %0) #7 {
  %2 = alloca ptr, align 8
  store ptr %0, ptr %2, align 8
  %3 = load ptr, ptr %2, align 8
  %4 = call i64 @strtol(ptr noundef %3, ptr noundef null, i32 noundef 10) #8
  %5 = trunc i64 %4 to i32
  ret i32 %5
}

; Function Attrs: nounwind uwtable
define internal void @_print_topo_record(ptr noundef %0, ptr noundef %1) #0 {
  %3 = alloca ptr, align 8
  %4 = alloca ptr, align 8
  %5 = alloca ptr, align 8
  %6 = alloca ptr, align 8
  %7 = alloca ptr, align 8
  store ptr %0, ptr %3, align 8
  store ptr %1, ptr %4, align 8
  call void @llvm.lifetime.start.p0(i64 8, ptr %5) #8
  call void @llvm.lifetime.start.p0(i64 8, ptr %6) #8
  store ptr null, ptr %6, align 8
  call void @llvm.lifetime.start.p0(i64 8, ptr %7) #8
  store ptr null, ptr %7, align 8
  %8 = load ptr, ptr %3, align 8
  %9 = getelementptr inbounds nuw %struct.topoinfo_bblock, ptr %8, i32 0, i32 0
  %10 = load i8, ptr %9, align 8, !range !15, !noundef !16
  %11 = trunc i8 %10 to i1
  %12 = select i1 %11, ptr @.str.9, ptr @.str.10
  %13 = load ptr, ptr %3, align 8
  %14 = getelementptr inbounds nuw %struct.topoinfo_bblock, ptr %13, i32 0, i32 2
  %15 = load ptr, ptr %14, align 8
  %16 = load ptr, ptr %3, align 8
  %17 = getelementptr inbounds nuw %struct.topoinfo_bblock, ptr %16, i32 0, i32 1
  %18 = load i16, ptr %17, align 2
  %19 = zext i16 %18 to i32
  call void (ptr, ptr, ptr, ...) @slurm_xstrfmtcatat(ptr noundef %6, ptr noundef %7, ptr noundef @.str.8, ptr noundef %12, ptr noundef %15, i32 noundef %19)
  %20 = load ptr, ptr %3, align 8
  %21 = getelementptr inbounds nuw %struct.topoinfo_bblock, ptr %20, i32 0, i32 3
  %22 = load ptr, ptr %21, align 8
  %23 = icmp ne ptr %22, null
  br i1 %23, label %24, label %28

24:                                               ; preds = %2
  %25 = load ptr, ptr %3, align 8
  %26 = getelementptr inbounds nuw %struct.topoinfo_bblock, ptr %25, i32 0, i32 3
  %27 = load ptr, ptr %26, align 8
  call void (ptr, ptr, ptr, ...) @slurm_xstrfmtcatat(ptr noundef %6, ptr noundef %7, ptr noundef @.str.11, ptr noundef %27)
  br label %28

28:                                               ; preds = %24, %2
  %29 = load ptr, ptr %3, align 8
  %30 = getelementptr inbounds nuw %struct.topoinfo_bblock, ptr %29, i32 0, i32 4
  %31 = load i32, ptr %30, align 8
  call void (ptr, ptr, ptr, ...) @slurm_xstrfmtcatat(ptr noundef %6, ptr noundef %7, ptr noundef @.str.12, i32 noundef %31)
  %32 = call ptr @getenv(ptr noundef @.str.13) #8
  store ptr %32, ptr %5, align 8
  %33 = icmp ne ptr %32, null
  br i1 %33, label %34, label %39

34:                                               ; preds = %28
  %35 = load ptr, ptr %4, align 8
  %36 = load ptr, ptr %5, align 8
  %37 = call i32 @atoi(ptr noundef %36) #9
  %38 = load ptr, ptr %6, align 8
  call void (ptr, ptr, ...) @slurm_xstrfmtcat(ptr noundef %35, ptr noundef @.str.14, i32 noundef %37, ptr noundef %38)
  br label %42

39:                                               ; preds = %28
  %40 = load ptr, ptr %4, align 8
  %41 = load ptr, ptr %6, align 8
  call void (ptr, ptr, ...) @slurm_xstrfmtcat(ptr noundef %40, ptr noundef @.str.15, ptr noundef %41)
  br label %42

42:                                               ; preds = %39, %34
  call void @slurm_xfree(ptr noundef %6)
  call void @llvm.lifetime.end.p0(i64 8, ptr %7) #8
  call void @llvm.lifetime.end.p0(i64 8, ptr %6) #8
  call void @llvm.lifetime.end.p0(i64 8, ptr %5) #8
  ret void
}