; Function Attrs: nounwind uwtable
define internal fastcc void @_print_topo_record(ptr noundef readonly captures(none) %0, ptr noundef %1) unnamed_addr #0 {
  %3 = alloca ptr, align 8
  %4 = alloca ptr, align 8
  call void @llvm.lifetime.start.p0(i64 8, ptr nonnull %3) #9
  store ptr null, ptr %3, align 8
  call void @llvm.lifetime.start.p0(i64 8, ptr nonnull %4) #9
  store ptr null, ptr %4, align 8
  %5 = load i8, ptr %0, align 8, !range !15, !noundef !16
  %6 = trunc nuw i8 %5 to i1
  %7 = select i1 %6, ptr @.str.9, ptr @.str.10
  %8 = getelementptr inbounds nuw i8, ptr %0, i64 8
  %9 = load ptr, ptr %8, align 8
  %10 = getelementptr inbounds nuw i8, ptr %0, i64 2
  %11 = load i16, ptr %10, align 2
  %12 = zext i16 %11 to i32
  call void (ptr, ptr, ptr, ...) @slurm_xstrfmtcatat(ptr noundef nonnull %3, ptr noundef nonnull %4, ptr noundef nonnull @.str.8, ptr noundef nonnull %7, ptr noundef %9, i32 noundef %12) #9
  %13 = getelementptr inbounds nuw i8, ptr %0, i64 16
  %14 = load ptr, ptr %13, align 8
  %.not = icmp eq ptr %14, null
  br i1 %.not, label %16, label %15

15:                                               ; preds = %2
  call void (ptr, ptr, ptr, ...) @slurm_xstrfmtcatat(ptr noundef nonnull %3, ptr noundef nonnull %4, ptr noundef nonnull @.str.11, ptr noundef nonnull %14) #9
  br label %16

16:                                               ; preds = %15, %2
  %17 = getelementptr inbounds nuw i8, ptr %0, i64 24
  %18 = load i32, ptr %17, align 8
  call void (ptr, ptr, ptr, ...) @slurm_xstrfmtcatat(ptr noundef nonnull %3, ptr noundef nonnull %4, ptr noundef nonnull @.str.12, i32 noundef %18) #9
  %19 = call ptr @getenv(ptr noundef nonnull @.str.13) #9
  %.not10 = icmp eq ptr %19, null
  br i1 %.not10, label %24, label %20

20:                                               ; preds = %16
  %21 = call i64 @strtol(ptr noundef nonnull captures(none) %19, ptr noundef null, i32 noundef 10) #9
  %22 = trunc i64 %21 to i32
  %23 = load ptr, ptr %3, align 8
  call void (ptr, ptr, ...) @slurm_xstrfmtcat(ptr noundef %1, ptr noundef nonnull @.str.14, i32 noundef %22, ptr noundef %23) #9
  br label %26

24:                                               ; preds = %16
  %25 = load ptr, ptr %3, align 8
  call void (ptr, ptr, ...) @slurm_xstrfmtcat(ptr noundef %1, ptr noundef nonnull @.str.15, ptr noundef %25) #9
  br label %26

26:                                               ; preds = %24, %20
  call void @slurm_xfree(ptr noundef nonnull %3) #9
  call void @llvm.lifetime.end.p0(i64 8, ptr nonnull %4) #9
  call void @llvm.lifetime.end.p0(i64 8, ptr nonnull %3) #9
  ret void
}